; Function Attrs: uwtable
define hidden i32 @_ZThn48_N5array6solver11internalizeEP4exprbb(ptr noundef nonnull %0, ptr noundef %1, i1 noundef zeroext %2, i1 noundef zeroext %3) unnamed_addr #5 align 2 {
  %5 = getelementptr inbounds nuw i8, ptr %0, i64 24
  %6 = load ptr, ptr %5, align 8, !tbaa !3
  %7 = tail call noundef zeroext i1 @_ZN3euf15th_internalizer9visit_recER11ast_managerP4exprbb(ptr noundef nonnull align 8 dereferenceable(24) %0, ptr noundef nonnull align 8 dereferenceable(976) %6, ptr noundef %1, i1 noundef zeroext %2, i1 noundef zeroext %3)
  br i1 %7, label %8, label %_ZN5array6solver11internalizeEP4exprbb.exit

8:                                                ; preds = %4
  %9 = getelementptr inbounds i8, ptr %0, i64 -48
  %10 = tail call i32 @_ZNK3euf13th_euf_solver12expr2literalEP4expr(ptr noundef nonnull align 8 dereferenceable(536) %9, ptr noundef %1)
  %11 = zext i1 %2 to i32
  %spec.select.i = xor i32 %10, %11
  br label %_ZN5array6solver11internalizeEP4exprbb.exit

_ZN5array6solver11internalizeEP4exprbb.exit:      ; preds = %4, %8
  %.sroa.0.0.i = phi i32 [ -2, %4 ], [ %spec.select.i, %8 ]
  ret i32 %.sroa.0.0.i
}